#include <math.h>
#include <stdio.h>
#include <stdlib.h>
#include <string.h>

void search()
{
	char s[100];
	int i,j,k=0;
	gets(s);
	for(i=0;i<strlen(s);i++)
	{
		k=0;
		for(j=0;j<strlen(s);j++)
		if(s[i]==s[j]) k++;
		if(k==1) break; 
		}
	if(k>1) printf("no\n");
		else
	printf("%c\n",s[i]);
	}
	
int main()
	{
		int n;
		scanf("%d",&n);
		getchar();
		while(n>0)
		{
			search();
			n--;
			}
		return 0;		
		}